target datalayout = "e-m:e-p270:32:32-p271:32:32-p272:64:64-i64:64-i128:128-f80:128-n8:16:32:64-S128"
target triple = "x86_64-pc-linux-gnu"

%struct.decNumber = type { i32, i32, i8, [1 x i16] }

; Function Attrs: nounwind uwtable
define internal i32 @decGetDigits(ptr noundef %0, i32 noundef %1) #0 {
  %3 = alloca ptr, align 8
  %4 = alloca i32, align 4
  %5 = alloca ptr, align 8
  %6 = alloca i32, align 4
  store ptr %0, ptr %3, align 8, !tbaa !12
  store i32 %1, ptr %4, align 4, !tbaa !8
  call void @llvm.lifetime.start.p0(i64 8, ptr %5) #7
  %7 = load ptr, ptr %3, align 8, !tbaa !12
  %8 = load i32, ptr %4, align 4, !tbaa !8
  %9 = sub nsw i32 %8, 1
  %10 = sext i32 %9 to i64
  %11 = getelementptr inbounds i16, ptr %7, i64 %10
  store ptr %11, ptr %5, align 8, !tbaa !12
  call void @llvm.lifetime.start.p0(i64 4, ptr %6) #7
  %12 = load i32, ptr %4, align 4, !tbaa !8
  %13 = sub nsw i32 %12, 1
  %14 = mul nsw i32 %13, 3
  %15 = add nsw i32 %14, 1
  store i32 %15, ptr %6, align 4, !tbaa !8
  br label %16

16:                                               ; preds = %49, %2
  %17 = load ptr, ptr %5, align 8, !tbaa !12
  %18 = load ptr, ptr %3, align 8, !tbaa !12
  %19 = icmp uge ptr %17, %18
  br i1 %19, label %20, label %52

20:                                               ; preds = %16
  %21 = load ptr, ptr %5, align 8, !tbaa !12
  %22 = load i16, ptr %21, align 2, !tbaa !14
  %23 = zext i16 %22 to i32
  %24 = icmp eq i32 %23, 0
  br i1 %24, label %25, label %32

25:                                               ; preds = %20
  %26 = load i32, ptr %6, align 4, !tbaa !8
  %27 = icmp eq i32 %26, 1
  br i1 %27, label %28, label %29

28:                                               ; preds = %25
  br label %52

29:                                               ; preds = %25
  %30 = load i32, ptr %6, align 4, !tbaa !8
  %31 = sub nsw i32 %30, 3
  store i32 %31, ptr %6, align 4, !tbaa !8
  br label %49

32:                                               ; preds = %20
  %33 = load ptr, ptr %5, align 8, !tbaa !12
  %34 = load i16, ptr %33, align 2, !tbaa !14
  %35 = zext i16 %34 to i32
  %36 = icmp slt i32 %35, 10
  br i1 %36, label %37, label %38

37:                                               ; preds = %32
  br label %52

38:                                               ; preds = %32
  %39 = load i32, ptr %6, align 4, !tbaa !8
  %40 = add nsw i32 %39, 1
  store i32 %40, ptr %6, align 4, !tbaa !8
  %41 = load ptr, ptr %5, align 8, !tbaa !12
  %42 = load i16, ptr %41, align 2, !tbaa !14
  %43 = zext i16 %42 to i32
  %44 = icmp slt i32 %43, 100
  br i1 %44, label %45, label %46

45:                                               ; preds = %38
  br label %52

46:                                               ; preds = %38
  %47 = load i32, ptr %6, align 4, !tbaa !8
  %48 = add nsw i32 %47, 1
  store i32 %48, ptr %6, align 4, !tbaa !8
  br label %52

49:                                               ; preds = %29
  %50 = load ptr, ptr %5, align 8, !tbaa !12
  %51 = getelementptr inbounds i16, ptr %50, i32 -1
  store ptr %51, ptr %5, align 8, !tbaa !12
  br label %16, !llvm.loop !20

52:                                               ; preds = %46, %45, %37, %28, %16
  %53 = load i32, ptr %6, align 4, !tbaa !8
  call void @llvm.lifetime.end.p0(i64 4, ptr %6) #7
  call void @llvm.lifetime.end.p0(i64 8, ptr %5) #7
  ret i32 %53
}

; Function Attrs: nounwind uwtable
define dso_local ptr @decNumberZero(ptr noundef %0) #0 {
  %2 = alloca ptr, align 8
  store ptr %0, ptr %2, align 8, !tbaa !4
  %3 = load ptr, ptr %2, align 8, !tbaa !4
  %4 = getelementptr inbounds nuw %struct.decNumber, ptr %3, i32 0, i32 2
  store i8 0, ptr %4, align 4, !tbaa !10
  %5 = load ptr, ptr %2, align 8, !tbaa !4
  %6 = getelementptr inbounds nuw %struct.decNumber, ptr %5, i32 0, i32 1
  store i32 0, ptr %6, align 4, !tbaa !19
  %7 = load ptr, ptr %2, align 8, !tbaa !4
  %8 = getelementptr inbounds nuw %struct.decNumber, ptr %7, i32 0, i32 0
  store i32 1, ptr %8, align 4, !tbaa !18
  %9 = load ptr, ptr %2, align 8, !tbaa !4
  %10 = getelementptr inbounds nuw %struct.decNumber, ptr %9, i32 0, i32 3
  %11 = getelementptr inbounds [1 x i16], ptr %10, i64 0, i64 0
  store i16 0, ptr %11, align 2, !tbaa !14
  %12 = load ptr, ptr %2, align 8, !tbaa !4
  ret ptr %12
}

; Function Attrs: nounwind uwtable
define dso_local ptr @decNumberFromUInt32(ptr noundef %0, i32 noundef %1) #0 {
  %3 = alloca ptr, align 8
  %4 = alloca ptr, align 8
  %5 = alloca i32, align 4
  %6 = alloca ptr, align 8
  %7 = alloca i32, align 4
  store ptr %0, ptr %4, align 8, !tbaa !4
  store i32 %1, ptr %5, align 4, !tbaa !8
  call void @llvm.lifetime.start.p0(i64 8, ptr %6) #7
  %8 = load ptr, ptr %4, align 8, !tbaa !4
  %9 = call ptr @decNumberZero(ptr noundef %8)
  %10 = load i32, ptr %5, align 4, !tbaa !8
  %11 = icmp eq i32 %10, 0
  br i1 %11, label %12, label %14

12:                                               ; preds = %2
  %13 = load ptr, ptr %4, align 8, !tbaa !4
  store ptr %13, ptr %3, align 8
  store i32 1, ptr %7, align 4
  br label %48

14:                                               ; preds = %2
  %15 = load ptr, ptr %4, align 8, !tbaa !4
  %16 = getelementptr inbounds nuw %struct.decNumber, ptr %15, i32 0, i32 3
  %17 = getelementptr inbounds [1 x i16], ptr %16, i64 0, i64 0
  store ptr %17, ptr %6, align 8, !tbaa !12
  br label %18

18:                                               ; preds = %28, %14
  %19 = load i32, ptr %5, align 4, !tbaa !8
  %20 = icmp ugt i32 %19, 0
  br i1 %20, label %21, label %31

21:                                               ; preds = %18
  %22 = load i32, ptr %5, align 4, !tbaa !8
  %23 = urem i32 %22, 1000
  %24 = trunc i32 %23 to i16
  %25 = load ptr, ptr %6, align 8, !tbaa !12
  store i16 %24, ptr %25, align 2, !tbaa !14
  %26 = load i32, ptr %5, align 4, !tbaa !8
  %27 = udiv i32 %26, 1000
  store i32 %27, ptr %5, align 4, !tbaa !8
  br label %28

28:                                               ; preds = %21
  %29 = load ptr, ptr %6, align 8, !tbaa !12
  %30 = getelementptr inbounds nuw i16, ptr %29, i32 1
  store ptr %30, ptr %6, align 8, !tbaa !12
  br label %18, !llvm.loop !16

31:                                               ; preds = %18
  %32 = load ptr, ptr %4, align 8, !tbaa !4
  %33 = getelementptr inbounds nuw %struct.decNumber, ptr %32, i32 0, i32 3
  %34 = getelementptr inbounds [1 x i16], ptr %33, i64 0, i64 0
  %35 = load ptr, ptr %6, align 8, !tbaa !12
  %36 = load ptr, ptr %4, align 8, !tbaa !4
  %37 = getelementptr inbounds nuw %struct.decNumber, ptr %36, i32 0, i32 3
  %38 = getelementptr inbounds [1 x i16], ptr %37, i64 0, i64 0
  %39 = ptrtoint ptr %35 to i64
  %40 = ptrtoint ptr %38 to i64
  %41 = sub i64 %39, %40
  %42 = sdiv exact i64 %41, 2
  %43 = trunc i64 %42 to i32
  %44 = call i32 @decGetDigits(ptr noundef %34, i32 noundef %43)
  %45 = load ptr, ptr %4, align 8, !tbaa !4
  %46 = getelementptr inbounds nuw %struct.decNumber, ptr %45, i32 0, i32 0
  store i32 %44, ptr %46, align 4, !tbaa !18
  %47 = load ptr, ptr %4, align 8, !tbaa !4
  store ptr %47, ptr %3, align 8
  store i32 1, ptr %7, align 4
  br label %48

48:                                               ; preds = %31, %12
  call void @llvm.lifetime.end.p0(i64 8, ptr %6) #7
  %49 = load ptr, ptr %3, align 8
  ret ptr %49
}

; Function Attrs: nounwind uwtable
define dso_local ptr @decNumberFromInt32(ptr noundef %0, i32 noundef %1) #0 {
  %3 = alloca ptr, align 8
  %4 = alloca i32, align 4
  %5 = alloca i32, align 4
  store ptr %0, ptr %3, align 8, !tbaa !4
  store i32 %1, ptr %4, align 4, !tbaa !8
  call void @llvm.lifetime.start.p0(i64 4, ptr %5) #7
  %6 = load i32, ptr %4, align 4, !tbaa !8
  %7 = icmp sge i32 %6, 0
  br i1 %7, label %8, label %10

8:                                                ; preds = %2
  %9 = load i32, ptr %4, align 4, !tbaa !8
  store i32 %9, ptr %5, align 4, !tbaa !8
  br label %18

10:                                               ; preds = %2
  %11 = load i32, ptr %4, align 4, !tbaa !8
  %12 = icmp eq i32 %11, -2147483648
  br i1 %12, label %13, label %14

13:                                               ; preds = %10
  store i32 -2147483648, ptr %5, align 4, !tbaa !8
  br label %17

14:                                               ; preds = %10
  %15 = load i32, ptr %4, align 4, !tbaa !8
  %16 = sub nsw i32 0, %15
  store i32 %16, ptr %5, align 4, !tbaa !8
  br label %17

17:                                               ; preds = %14, %13
  br label %18

18:                                               ; preds = %17, %8
  %19 = load ptr, ptr %3, align 8, !tbaa !4
  %20 = load i32, ptr %5, align 4, !tbaa !8
  %21 = call ptr @decNumberFromUInt32(ptr noundef %19, i32 noundef %20)
  %22 = load i32, ptr %4, align 4, !tbaa !8
  %23 = icmp slt i32 %22, 0
  br i1 %23, label %24, label %27

24:                                               ; preds = %18
  %25 = load ptr, ptr %3, align 8, !tbaa !4
  %26 = getelementptr inbounds nuw %struct.decNumber, ptr %25, i32 0, i32 2
  store i8 -128, ptr %26, align 4, !tbaa !10
  br label %27

27:                                               ; preds = %24, %18
  %28 = load ptr, ptr %3, align 8, !tbaa !4
  call void @llvm.lifetime.end.p0(i64 4, ptr %5) #7
  ret ptr %28
}