; Function Attrs: nofree norecurse nosync nounwind memory(argmem: readwrite) uwtable
define dso_local noundef ptr @decNumberFromInt32(ptr noundef returned initializes((0, 9), (10, 12)) %0, i32 noundef %1) local_unnamed_addr #0 {
  %3 = getelementptr inbounds nuw i8, ptr %0, i64 8
  store i8 0, ptr %3, align 4, !tbaa !4
  %4 = getelementptr inbounds nuw i8, ptr %0, i64 4
  store i32 0, ptr %4, align 4, !tbaa !9
  store i32 1, ptr %0, align 4, !tbaa !10
  %.ptr17.i = getelementptr inbounds nuw i8, ptr %0, i64 10
  store i16 0, ptr %.ptr17.i, align 2, !tbaa !11
  %5 = icmp eq i32 %1, 0
  br i1 %5, label %decNumberFromUInt32.exit.thread, label %.preheader.i.preheader

.preheader.i.preheader:                           ; preds = %2
  %.0 = tail call i32 @llvm.abs.i32(i32 %1, i1 false)
  br label %.preheader.i

.preheader.i:                                     ; preds = %.preheader.i.preheader, %.preheader.i
  %.022.i = phi ptr [ %9, %.preheader.i ], [ %.ptr17.i, %.preheader.i.preheader ]
  %.01421.i = phi i32 [ %8, %.preheader.i ], [ %.0, %.preheader.i.preheader ]
  %6 = urem i32 %.01421.i, 1000
  %7 = trunc nuw nsw i32 %6 to i16
  store i16 %7, ptr %.022.i, align 2, !tbaa !11
  %8 = udiv i32 %.01421.i, 1000
  %9 = getelementptr inbounds nuw i8, ptr %.022.i, i64 2
  %.not.i = icmp ult i32 %.01421.i, 1000
  br i1 %.not.i, label %10, label %.preheader.i, !llvm.loop !13

10:                                               ; preds = %.preheader.i
  %11 = ptrtoint ptr %9 to i64
  %12 = ptrtoint ptr %.ptr17.i to i64
  %13 = sub i64 %11, %12
  %14 = lshr exact i64 %13, 1
  %15 = trunc i64 %14 to i32
  %16 = add nsw i32 %15, -1
  %17 = mul nsw i32 %16, 3
  %18 = add nsw i32 %17, 1
  %.not16.i.i = icmp slt i32 %15, 1
  br i1 %.not16.i.i, label %decNumberFromUInt32.exit, label %.lr.ph.preheader.i.i

.lr.ph.preheader.i.i:                             ; preds = %10
  %19 = zext nneg i32 %16 to i64
  %.idx.i = shl nuw nsw i64 %19, 1
  %.add.i = add nuw nsw i64 %.idx.i, 10
  %.01317.i.ptr.i12 = getelementptr inbounds nuw i8, ptr %0, i64 %.add.i
  %20 = load i16, ptr %.01317.i.ptr.i12, align 2, !tbaa !11
  %21 = icmp eq i16 %20, 0
  br i1 %21, label %.lr.ph, label %.lr.ph.i.i._crit_edge

.lr.ph:                                           ; preds = %.lr.ph.preheader.i.i, %.lr.ph.i.i
  %.01317.i.idx.i14 = phi i64 [ %.01317.i.add.i, %.lr.ph.i.i ], [ %.add.i, %.lr.ph.preheader.i.i ]
  %.018.i.i13 = phi i32 [ %23, %.lr.ph.i.i ], [ %18, %.lr.ph.preheader.i.i ]
  %22 = icmp eq i32 %.018.i.i13, 1
  br i1 %22, label %decNumberFromUInt32.exit, label %.lr.ph.i.i

.lr.ph.i.i:                                       ; preds = %.lr.ph
  %23 = add nsw i32 %.018.i.i13, -3
  %.01317.i.add.i = add nsw i64 %.01317.i.idx.i14, -2
  %.01317.i.ptr.i = getelementptr inbounds i8, ptr %0, i64 %.01317.i.add.i
  %24 = load i16, ptr %.01317.i.ptr.i, align 2, !tbaa !11
  %25 = icmp eq i16 %24, 0
  br i1 %25, label %.lr.ph, label %.lr.ph.i.i._crit_edge

.lr.ph.i.i._crit_edge:                            ; preds = %.lr.ph.i.i, %.lr.ph.preheader.i.i
  %.018.i.i.lcssa = phi i32 [ %18, %.lr.ph.preheader.i.i ], [ %23, %.lr.ph.i.i ]
  %.lcssa = phi i16 [ %20, %.lr.ph.preheader.i.i ], [ %24, %.lr.ph.i.i ]
  %26 = icmp ult i16 %.lcssa, 10
  br i1 %26, label %decNumberFromUInt32.exit, label %27

27:                                               ; preds = %.lr.ph.i.i._crit_edge
  %28 = icmp ult i16 %.lcssa, 100
  %spec.select.v.i.i = select i1 %28, i32 1, i32 2
  %spec.select.i.i = add nsw i32 %spec.select.v.i.i, %.018.i.i.lcssa
  br label %decNumberFromUInt32.exit

decNumberFromUInt32.exit:                         ; preds = %.lr.ph, %10, %.lr.ph.i.i._crit_edge, %27
  %.1.i.i = phi i32 [ %.018.i.i.lcssa, %.lr.ph.i.i._crit_edge ], [ %spec.select.i.i, %27 ], [ %18, %10 ], [ 1, %.lr.ph ]
  store i32 %.1.i.i, ptr %0, align 4, !tbaa !10
  %29 = icmp slt i32 %1, 0
  br i1 %29, label %30, label %decNumberFromUInt32.exit.thread

30:                                               ; preds = %decNumberFromUInt32.exit
  store i8 -128, ptr %3, align 4, !tbaa !4
  br label %decNumberFromUInt32.exit.thread

decNumberFromUInt32.exit.thread:                  ; preds = %2, %30, %decNumberFromUInt32.exit
  ret ptr %0
}